; Function Attrs: mustprogress nounwind uwtable
define void @_ZN18OpenImageIO_v2_6_010Filesystem8filenameB5cxx11ENS_17basic_string_viewIcSt11char_traitsIcEEE(ptr noalias sret(%"class.std::__cxx11::basic_string") align 8 %agg.result, ptr noundef %filepath) local_unnamed_addr #3 personality ptr @__gxx_personality_v0 {
entry:
  %ref.tmp.i.i = alloca %"class.std::allocator", align 1
  %ref.tmp = alloca %"class.std::filesystem::__cxx11::path", align 8
  %ref.tmp1 = alloca %"class.std::filesystem::__cxx11::path", align 8
  %0 = load ptr, ptr %filepath, align 8
  %m_len.i.i = getelementptr inbounds i8, ptr %filepath, i64 8
  %1 = load i64, ptr %m_len.i.i, align 8
  %add.ptr.i.i = getelementptr inbounds i8, ptr %0, i64 %1
  invoke void @_ZNSt10filesystem7__cxx114pathC2IPKcS1_EET_S5_NS1_6formatE(ptr noundef nonnull align 8 dereferenceable(40) %ref.tmp1, ptr noundef %0, ptr noundef %add.ptr.i.i, i8 noundef zeroext 2)
          to label %invoke.cont2 unwind label %lpad

invoke.cont2:                                     ; preds = %entry
  invoke void @_ZNKSt10filesystem7__cxx114path8filenameEv(ptr nonnull sret(%"class.std::filesystem::__cxx11::path") align 8 %ref.tmp, ptr noundef nonnull align 8 dereferenceable(40) %ref.tmp1)
          to label %invoke.cont4 unwind label %lpad3

invoke.cont4:                                     ; preds = %invoke.cont2
  call void @llvm.lifetime.start.p0(i64 1, ptr nonnull %ref.tmp.i.i), !noalias !4
  call void @_ZNSaIcEC1Ev(ptr noundef nonnull align 1 dereferenceable(1) %ref.tmp.i.i) #32, !noalias !7
  %call.i.i.i = call noundef ptr @_ZNKSt7__cxx1112basic_stringIcSt11char_traitsIcESaIcEE5c_strEv(ptr noundef nonnull align 8 dereferenceable(32) %ref.tmp) #32, !noalias !10
  %call3.i.i.i = call noundef i64 @_ZNKSt7__cxx1112basic_stringIcSt11char_traitsIcESaIcEE6lengthEv(ptr noundef nonnull align 8 dereferenceable(32) %ref.tmp) #32, !noalias !10
  invoke void @_ZNSt7__cxx1112basic_stringIcSt11char_traitsIcESaIcEEC1EPKcmRKS3_(ptr noundef nonnull align 8 dereferenceable(32) %agg.result, ptr noundef %call.i.i.i, i64 noundef %call3.i.i.i, ptr noundef nonnull align 1 dereferenceable(1) %ref.tmp.i.i)
          to label %invoke.cont6 unwind label %lpad.i.i

lpad.i.i:                                         ; preds = %invoke.cont4
  %2 = landingpad { ptr, i32 }
          catch ptr null
  call void @_ZNSaIcED1Ev(ptr noundef nonnull align 1 dereferenceable(1) %ref.tmp.i.i) #32
  call void @_ZNSt10filesystem7__cxx114pathD2Ev(ptr noundef nonnull align 8 dereferenceable(40) %ref.tmp) #32
  br label %ehcleanup

invoke.cont6:                                     ; preds = %invoke.cont4
  call void @_ZNSaIcED1Ev(ptr noundef nonnull align 1 dereferenceable(1) %ref.tmp.i.i) #32
  call void @llvm.lifetime.end.p0(i64 1, ptr nonnull %ref.tmp.i.i), !noalias !4
  %_M_cmpts.i = getelementptr inbounds i8, ptr %ref.tmp, i64 32
  %3 = load ptr, ptr %_M_cmpts.i, align 8
  %cmp.not.i.i.i = icmp eq ptr %3, null
  br i1 %cmp.not.i.i.i, label %_ZNSt10filesystem7__cxx114pathD2Ev.exit, label %if.then.i.i.i

if.then.i.i.i:                                    ; preds = %invoke.cont6
  call void @_ZNKSt10filesystem7__cxx114path5_List13_Impl_deleterclEPNS2_5_ImplE(ptr noundef nonnull align 1 dereferenceable(1) %_M_cmpts.i, ptr noundef nonnull %3) #32
  br label %_ZNSt10filesystem7__cxx114pathD2Ev.exit

_ZNSt10filesystem7__cxx114pathD2Ev.exit:          ; preds = %invoke.cont6, %if.then.i.i.i
  store ptr null, ptr %_M_cmpts.i, align 8
  call void @_ZNSt7__cxx1112basic_stringIcSt11char_traitsIcESaIcEED1Ev(ptr noundef nonnull align 8 dereferenceable(32) %ref.tmp) #32
  %_M_cmpts.i2 = getelementptr inbounds i8, ptr %ref.tmp1, i64 32
  %4 = load ptr, ptr %_M_cmpts.i2, align 8
  %cmp.not.i.i.i3 = icmp eq ptr %4, null
  br i1 %cmp.not.i.i.i3, label %_ZNSt10filesystem7__cxx114pathD2Ev.exit5, label %if.then.i.i.i4

if.then.i.i.i4:                                   ; preds = %_ZNSt10filesystem7__cxx114pathD2Ev.exit
  call void @_ZNKSt10filesystem7__cxx114path5_List13_Impl_deleterclEPNS2_5_ImplE(ptr noundef nonnull align 1 dereferenceable(1) %_M_cmpts.i2, ptr noundef nonnull %4) #32
  br label %_ZNSt10filesystem7__cxx114pathD2Ev.exit5

_ZNSt10filesystem7__cxx114pathD2Ev.exit5:         ; preds = %_ZNSt10filesystem7__cxx114pathD2Ev.exit, %if.then.i.i.i4
  store ptr null, ptr %_M_cmpts.i2, align 8
  call void @_ZNSt7__cxx1112basic_stringIcSt11char_traitsIcESaIcEED1Ev(ptr noundef nonnull align 8 dereferenceable(32) %ref.tmp1) #32
  br label %return

lpad:                                             ; preds = %entry
  %5 = landingpad { ptr, i32 }
          catch ptr null
  br label %catch

lpad3:                                            ; preds = %invoke.cont2
  %6 = landingpad { ptr, i32 }
          catch ptr null
  br label %ehcleanup

ehcleanup:                                        ; preds = %lpad.i.i, %lpad3
  %.pn = phi { ptr, i32 } [ %2, %lpad.i.i ], [ %6, %lpad3 ]
  call void @_ZNSt10filesystem7__cxx114pathD2Ev(ptr noundef nonnull align 8 dereferenceable(40) %ref.tmp1) #32
  br label %catch

catch:                                            ; preds = %ehcleanup, %lpad
  %.pn.pn = phi { ptr, i32 } [ %.pn, %ehcleanup ], [ %5, %lpad ]
  %exn.slot.1 = extractvalue { ptr, i32 } %.pn.pn, 0
  %7 = call ptr @__cxa_begin_catch(ptr %exn.slot.1) #32
  invoke void @_ZNK18OpenImageIO_v2_6_017basic_string_viewIcSt11char_traitsIcEEcvNSt7__cxx1112basic_stringIcS2_SaIcEEEEv(ptr sret(%"class.std::__cxx11::basic_string") align 8 %agg.result, ptr noundef nonnull align 8 dereferenceable(16) %filepath)
          to label %invoke.cont7 unwind label %terminate.lpad

invoke.cont7:                                     ; preds = %catch
  invoke void @__cxa_end_catch()
          to label %return unwind label %terminate.lpad

return:                                           ; preds = %invoke.cont7, %_ZNSt10filesystem7__cxx114pathD2Ev.exit5
  ret void

terminate.lpad:                                   ; preds = %invoke.cont7, %catch
  %8 = landingpad { ptr, i32 }
          catch ptr null
  %9 = extractvalue { ptr, i32 } %8, 0
  call void @__clang_call_terminate(ptr %9) #34
  unreachable
}